target datalayout = "e-m:e-p270:32:32-p271:32:32-p272:64:64-i64:64-i128:128-f80:128-n8:16:32:64-S128"
target triple = "x86_64-pc-linux-gnu"

%struct._php_stream = type { ptr, ptr, %struct._php_stream_filter_chain, %struct._php_stream_filter_chain, ptr, ptr, %struct._zval_struct, i16, [16 x i8], i32, ptr, ptr, ptr, ptr, i64, ptr, i64, i64, i64, i64, ptr }
%struct._php_stream_filter_chain = type { ptr, ptr, ptr }
%struct._zval_struct = type { %union._zend_value, %union.anon, %union.anon.2 }
%union._zend_value = type { i64 }
%union.anon = type { i32 }
%union.anon.2 = type { i32 }
%struct.glob_s_t = type { %struct.glob_t, i64, i32, ptr, i64, ptr, i64, ptr, i64, i8 }
%struct.glob_t = type { i64, ptr, i64, i32, ptr, ptr, ptr, ptr, ptr }
%struct._php_stream_dirent = type { [256 x i8], i8 }

; Function Attrs: nounwind uwtable
define internal void @php_glob_stream_path_split(ptr noundef %0, ptr noundef %1, i32 noundef %2, ptr noundef %3) #0 {
  %5 = alloca ptr, align 8
  %6 = alloca ptr, align 8
  %7 = alloca i32, align 4
  %8 = alloca ptr, align 8
  %9 = alloca ptr, align 8
  %10 = alloca ptr, align 8
  store ptr %0, ptr %5, align 8
  store ptr %1, ptr %6, align 8
  store i32 %2, ptr %7, align 4
  store ptr %3, ptr %8, align 8
  %11 = load ptr, ptr %6, align 8
  store ptr %11, ptr %10, align 8
  %12 = load ptr, ptr %6, align 8
  %13 = call ptr @strrchr(ptr noundef %12, i32 noundef 47) #8
  store ptr %13, ptr %9, align 8
  %14 = icmp ne ptr %13, null
  br i1 %14, label %15, label %18

15:                                               ; preds = %4
  %16 = load ptr, ptr %9, align 8
  %17 = getelementptr inbounds i8, ptr %16, i64 1
  store ptr %17, ptr %6, align 8
  br label %18

18:                                               ; preds = %15, %4
  %19 = load ptr, ptr %6, align 8
  %20 = load ptr, ptr %8, align 8
  store ptr %19, ptr %20, align 8
  %21 = load i32, ptr %7, align 4
  %22 = icmp ne i32 %21, 0
  br i1 %22, label %23, label %57

23:                                               ; preds = %18
  %24 = load ptr, ptr %5, align 8
  %25 = getelementptr inbounds %struct.glob_s_t, ptr %24, i32 0, i32 3
  %26 = load ptr, ptr %25, align 8
  %27 = icmp ne ptr %26, null
  br i1 %27, label %28, label %32

28:                                               ; preds = %23
  %29 = load ptr, ptr %5, align 8
  %30 = getelementptr inbounds %struct.glob_s_t, ptr %29, i32 0, i32 3
  %31 = load ptr, ptr %30, align 8
  call void @_efree(ptr noundef %31)
  br label %32

32:                                               ; preds = %28, %23
  %33 = load ptr, ptr %6, align 8
  %34 = load ptr, ptr %10, align 8
  %35 = ptrtoint ptr %33 to i64
  %36 = ptrtoint ptr %34 to i64
  %37 = sub i64 %35, %36
  %38 = icmp sgt i64 %37, 1
  br i1 %38, label %39, label %42

39:                                               ; preds = %32
  %40 = load ptr, ptr %6, align 8
  %41 = getelementptr inbounds i8, ptr %40, i32 -1
  store ptr %41, ptr %6, align 8
  br label %42

42:                                               ; preds = %39, %32
  %43 = load ptr, ptr %6, align 8
  %44 = load ptr, ptr %10, align 8
  %45 = ptrtoint ptr %43 to i64
  %46 = ptrtoint ptr %44 to i64
  %47 = sub i64 %45, %46
  %48 = load ptr, ptr %5, align 8
  %49 = getelementptr inbounds %struct.glob_s_t, ptr %48, i32 0, i32 4
  store i64 %47, ptr %49, align 8
  %50 = load ptr, ptr %10, align 8
  %51 = load ptr, ptr %5, align 8
  %52 = getelementptr inbounds %struct.glob_s_t, ptr %51, i32 0, i32 4
  %53 = load i64, ptr %52, align 8
  %54 = call noalias ptr @_estrndup(ptr noundef %50, i64 noundef %53)
  %55 = load ptr, ptr %5, align 8
  %56 = getelementptr inbounds %struct.glob_s_t, ptr %55, i32 0, i32 3
  store ptr %54, ptr %56, align 8
  br label %57

57:                                               ; preds = %42, %18
  ret void
}

; Function Attrs: nounwind uwtable
define internal i32 @php_glob_stream_get_result_count(ptr noundef %0) #0 {
  %2 = alloca ptr, align 8
  store ptr %0, ptr %2, align 8
  %3 = load ptr, ptr %2, align 8
  %4 = getelementptr inbounds %struct.glob_s_t, ptr %3, i32 0, i32 9
  %5 = load i8, ptr %4, align 8
  %6 = trunc i8 %5 to i1
  br i1 %6, label %7, label %13

7:                                                ; preds = %1
  %8 = load ptr, ptr %2, align 8
  %9 = getelementptr inbounds %struct.glob_s_t, ptr %8, i32 0, i32 8
  %10 = load i64, ptr %9, align 8
  %11 = trunc i64 %10 to i32
  %12 = sext i32 %11 to i64
  br label %18

13:                                               ; preds = %1
  %14 = load ptr, ptr %2, align 8
  %15 = getelementptr inbounds %struct.glob_s_t, ptr %14, i32 0, i32 0
  %16 = getelementptr inbounds %struct.glob_t, ptr %15, i32 0, i32 0
  %17 = load i64, ptr %16, align 8
  br label %18

18:                                               ; preds = %13, %7
  %19 = phi i64 [ %12, %7 ], [ %17, %13 ]
  %20 = trunc i64 %19 to i32
  ret i32 %20
}

; Function Attrs: nounwind uwtable
define internal i64 @php_glob_stream_read(ptr noundef %0, ptr noundef %1, i64 noundef %2) #0 {
  %4 = alloca i64, align 8
  %5 = alloca ptr, align 8
  %6 = alloca ptr, align 8
  %7 = alloca i64, align 8
  %8 = alloca ptr, align 8
  %9 = alloca ptr, align 8
  %10 = alloca ptr, align 8
  %11 = alloca i32, align 4
  %12 = alloca i64, align 8
  %13 = alloca i64, align 8
  store ptr %0, ptr %5, align 8
  store ptr %1, ptr %6, align 8
  store i64 %2, ptr %7, align 8
  %14 = load ptr, ptr %5, align 8
  %15 = getelementptr inbounds %struct._php_stream, ptr %14, i32 0, i32 1
  %16 = load ptr, ptr %15, align 8
  store ptr %16, ptr %8, align 8
  %17 = load ptr, ptr %6, align 8
  store ptr %17, ptr %9, align 8
  %18 = load i64, ptr %7, align 8
  %19 = icmp eq i64 %18, 257
  br i1 %19, label %20, label %108

20:                                               ; preds = %3
  %21 = load ptr, ptr %8, align 8
  %22 = icmp ne ptr %21, null
  br i1 %22, label %23, label %108

23:                                               ; preds = %20
  %24 = load ptr, ptr %8, align 8
  %25 = call i32 @php_glob_stream_get_result_count(ptr noundef %24)
  store i32 %25, ptr %11, align 4
  %26 = load ptr, ptr %8, align 8
  %27 = getelementptr inbounds %struct.glob_s_t, ptr %26, i32 0, i32 1
  %28 = load i64, ptr %27, align 8
  %29 = load i32, ptr %11, align 4
  %30 = sext i32 %29 to i64
  %31 = icmp ult i64 %28, %30
  br i1 %31, label %32, label %92

32:                                               ; preds = %23
  %33 = load ptr, ptr %8, align 8
  %34 = getelementptr inbounds %struct.glob_s_t, ptr %33, i32 0, i32 9
  %35 = load i8, ptr %34, align 8
  %36 = trunc i8 %35 to i1
  br i1 %36, label %37, label %51

37:                                               ; preds = %32
  %38 = load ptr, ptr %8, align 8
  %39 = getelementptr inbounds %struct.glob_s_t, ptr %38, i32 0, i32 7
  %40 = load ptr, ptr %39, align 8
  %41 = icmp ne ptr %40, null
  br i1 %41, label %42, label %51

42:                                               ; preds = %37
  %43 = load ptr, ptr %8, align 8
  %44 = getelementptr inbounds %struct.glob_s_t, ptr %43, i32 0, i32 7
  %45 = load ptr, ptr %44, align 8
  %46 = load ptr, ptr %8, align 8
  %47 = getelementptr inbounds %struct.glob_s_t, ptr %46, i32 0, i32 1
  %48 = load i64, ptr %47, align 8
  %49 = getelementptr inbounds i64, ptr %45, i64 %48
  %50 = load i64, ptr %49, align 8
  br label %55

51:                                               ; preds = %37, %32
  %52 = load ptr, ptr %8, align 8
  %53 = getelementptr inbounds %struct.glob_s_t, ptr %52, i32 0, i32 1
  %54 = load i64, ptr %53, align 8
  br label %55

55:                                               ; preds = %51, %42
  %56 = phi i64 [ %50, %42 ], [ %54, %51 ]
  store i64 %56, ptr %12, align 8
  %57 = load ptr, ptr %8, align 8
  %58 = load ptr, ptr %8, align 8
  %59 = getelementptr inbounds %struct.glob_s_t, ptr %58, i32 0, i32 0
  %60 = getelementptr inbounds %struct.glob_t, ptr %59, i32 0, i32 1
  %61 = load ptr, ptr %60, align 8
  %62 = load i64, ptr %12, align 8
  %63 = getelementptr inbounds ptr, ptr %61, i64 %62
  %64 = load ptr, ptr %63, align 8
  %65 = load ptr, ptr %8, align 8
  %66 = getelementptr inbounds %struct.glob_s_t, ptr %65, i32 0, i32 2
  %67 = load i32, ptr %66, align 8
  %68 = and i32 %67, 32
  call void @php_glob_stream_path_split(ptr noundef %57, ptr noundef %64, i32 noundef %68, ptr noundef %10)
  %69 = load ptr, ptr %8, align 8
  %70 = getelementptr inbounds %struct.glob_s_t, ptr %69, i32 0, i32 1
  %71 = load i64, ptr %70, align 8
  %72 = add i64 %71, 1
  store i64 %72, ptr %70, align 8
  %73 = load ptr, ptr %10, align 8
  %74 = call i64 @strlen(ptr noundef %73) #8
  %75 = icmp uge i64 %74, 256
  br i1 %75, label %76, label %77

76:                                               ; preds = %55
  store i64 255, ptr %13, align 8
  br label %80

77:                                               ; preds = %55
  %78 = load ptr, ptr %10, align 8
  %79 = call i64 @strlen(ptr noundef %78) #8
  store i64 %79, ptr %13, align 8
  br label %80

80:                                               ; preds = %77, %76
  %81 = load ptr, ptr %9, align 8
  %82 = getelementptr inbounds %struct._php_stream_dirent, ptr %81, i32 0, i32 0
  %83 = getelementptr inbounds [256 x i8], ptr %82, i64 0, i64 0
  %84 = load ptr, ptr %10, align 8
  %85 = load i64, ptr %13, align 8
  call void @llvm.memcpy.p0.p0.i64(ptr align 1 %83, ptr align 1 %84, i64 %85, i1 false)
  %86 = load ptr, ptr %9, align 8
  %87 = getelementptr inbounds %struct._php_stream_dirent, ptr %86, i32 0, i32 0
  %88 = load i64, ptr %13, align 8
  %89 = getelementptr inbounds [256 x i8], ptr %87, i64 0, i64 %88
  store i8 0, ptr %89, align 1
  %90 = load ptr, ptr %9, align 8
  %91 = getelementptr inbounds %struct._php_stream_dirent, ptr %90, i32 0, i32 1
  store i8 0, ptr %91, align 1
  store i64 257, ptr %4, align 8
  br label %109

92:                                               ; preds = %23
  %93 = load i32, ptr %11, align 4
  %94 = sext i32 %93 to i64
  %95 = load ptr, ptr %8, align 8
  %96 = getelementptr inbounds %struct.glob_s_t, ptr %95, i32 0, i32 1
  store i64 %94, ptr %96, align 8
  %97 = load ptr, ptr %8, align 8
  %98 = getelementptr inbounds %struct.glob_s_t, ptr %97, i32 0, i32 3
  %99 = load ptr, ptr %98, align 8
  %100 = icmp ne ptr %99, null
  br i1 %100, label %101, label %107

101:                                              ; preds = %92
  %102 = load ptr, ptr %8, align 8
  %103 = getelementptr inbounds %struct.glob_s_t, ptr %102, i32 0, i32 3
  %104 = load ptr, ptr %103, align 8
  call void @_efree(ptr noundef %104)
  %105 = load ptr, ptr %8, align 8
  %106 = getelementptr inbounds %struct.glob_s_t, ptr %105, i32 0, i32 3
  store ptr null, ptr %106, align 8
  br label %107

107:                                              ; preds = %101, %92
  br label %108

108:                                              ; preds = %107, %20, %3
  store i64 -1, ptr %4, align 8
  br label %109

109:                                              ; preds = %108, %80
  %110 = load i64, ptr %4, align 8
  ret i64 %110
}