; Function Attrs: nounwind uwtable
define internal noundef i64 @php_glob_stream_read(ptr nocapture noundef readonly %0, ptr nocapture noundef writeonly %1, i64 noundef %2) #1 {
  %4 = getelementptr inbounds i8, ptr %0, i64 8
  %5 = load ptr, ptr %4, align 8
  %6 = icmp eq i64 %2, 257
  %7 = icmp ne ptr %5, null
  %or.cond = select i1 %6, i1 %7, i1 false
  br i1 %or.cond, label %8, label %63

8:                                                ; preds = %3
  %9 = getelementptr inbounds i8, ptr %5, i64 136
  %10 = load i8, ptr %9, align 8
  %11 = and i8 %10, 1
  %.not.i = icmp eq i8 %11, 0
  br i1 %.not.i, label %php_glob_stream_get_result_count.exit, label %php_glob_stream_get_result_count.exit.thread

php_glob_stream_get_result_count.exit:            ; preds = %8
  %12 = load i64, ptr %5, align 8
  %13 = getelementptr inbounds i8, ptr %5, i64 72
  %14 = load i64, ptr %13, align 8
  %sext39 = shl i64 %12, 32
  %15 = ashr exact i64 %sext39, 32
  %16 = icmp ult i64 %14, %15
  br i1 %16, label %26, label %57

php_glob_stream_get_result_count.exit.thread:     ; preds = %8
  %17 = getelementptr inbounds i8, ptr %5, i64 128
  %18 = load i64, ptr %17, align 8
  %19 = getelementptr inbounds i8, ptr %5, i64 72
  %20 = load i64, ptr %19, align 8
  %sext = shl i64 %18, 32
  %21 = ashr exact i64 %sext, 32
  %22 = icmp ult i64 %20, %21
  br i1 %22, label %.thread, label %57

.thread:                                          ; preds = %php_glob_stream_get_result_count.exit.thread
  %23 = getelementptr inbounds i8, ptr %5, i64 120
  %24 = load ptr, ptr %23, align 8
  %.not36 = icmp eq ptr %24, null
  %25 = getelementptr inbounds i64, ptr %24, i64 %20
  %spec.select = select i1 %.not36, ptr %19, ptr %25
  %.pre = load i64, ptr %spec.select, align 8
  br label %26

26:                                               ; preds = %php_glob_stream_get_result_count.exit, %.thread
  %27 = phi i64 [ %20, %.thread ], [ %14, %php_glob_stream_get_result_count.exit ]
  %28 = phi i64 [ %.pre, %.thread ], [ %14, %php_glob_stream_get_result_count.exit ]
  %29 = phi ptr [ %19, %.thread ], [ %13, %php_glob_stream_get_result_count.exit ]
  %30 = getelementptr inbounds i8, ptr %5, i64 8
  %31 = load ptr, ptr %30, align 8
  %32 = getelementptr inbounds ptr, ptr %31, i64 %28
  %33 = load ptr, ptr %32, align 8
  %34 = getelementptr inbounds i8, ptr %5, i64 80
  %35 = load i32, ptr %34, align 8
  %36 = and i32 %35, 32
  %37 = tail call ptr @strrchr(ptr noundef nonnull dereferenceable(1) %33, i32 noundef 47) #9
  %.not.i37 = icmp eq ptr %37, null
  %38 = getelementptr inbounds i8, ptr %37, i64 1
  %spec.select.i = select i1 %.not.i37, ptr %33, ptr %38
  %.not18.i = icmp eq i32 %36, 0
  br i1 %.not18.i, label %php_glob_stream_path_split.exit, label %39

39:                                               ; preds = %26
  %40 = getelementptr inbounds i8, ptr %5, i64 88
  %41 = load ptr, ptr %40, align 8
  %.not19.i = icmp eq ptr %41, null
  br i1 %.not19.i, label %43, label %42

42:                                               ; preds = %39
  tail call void @_efree(ptr noundef nonnull %41) #10
  br label %43

43:                                               ; preds = %42, %39
  %44 = ptrtoint ptr %spec.select.i to i64
  %45 = ptrtoint ptr %33 to i64
  %46 = sub i64 %44, %45
  %47 = icmp sgt i64 %46, 1
  %spec.select20.idx.i = sext i1 %47 to i64
  %spec.select20.i = getelementptr inbounds i8, ptr %spec.select.i, i64 %spec.select20.idx.i
  %48 = ptrtoint ptr %spec.select20.i to i64
  %49 = sub i64 %48, %45
  %50 = getelementptr inbounds i8, ptr %5, i64 96
  store i64 %49, ptr %50, align 8
  %51 = tail call noalias ptr @_estrndup(ptr noundef %33, i64 noundef %49) #10
  store ptr %51, ptr %40, align 8
  %.pre40 = load i64, ptr %29, align 8
  br label %php_glob_stream_path_split.exit

php_glob_stream_path_split.exit:                  ; preds = %26, %43
  %52 = phi i64 [ %27, %26 ], [ %.pre40, %43 ]
  %53 = add i64 %52, 1
  store i64 %53, ptr %29, align 8
  %54 = tail call i64 @strlen(ptr noundef nonnull dereferenceable(1) %spec.select.i) #9
  %. = tail call i64 @llvm.umin.i64(i64 %54, i64 255)
  tail call void @llvm.memcpy.p0.p0.i64(ptr align 1 %1, ptr align 1 %spec.select.i, i64 %., i1 false)
  %55 = getelementptr inbounds [256 x i8], ptr %1, i64 0, i64 %.
  store i8 0, ptr %55, align 1
  %56 = getelementptr inbounds i8, ptr %1, i64 256
  store i8 0, ptr %56, align 1
  br label %63

57:                                               ; preds = %php_glob_stream_get_result_count.exit.thread, %php_glob_stream_get_result_count.exit
  %58 = phi i64 [ %21, %php_glob_stream_get_result_count.exit.thread ], [ %15, %php_glob_stream_get_result_count.exit ]
  %59 = phi ptr [ %19, %php_glob_stream_get_result_count.exit.thread ], [ %13, %php_glob_stream_get_result_count.exit ]
  store i64 %58, ptr %59, align 8
  %60 = getelementptr inbounds i8, ptr %5, i64 88
  %61 = load ptr, ptr %60, align 8
  %.not = icmp eq ptr %61, null
  br i1 %.not, label %63, label %62

62:                                               ; preds = %57
  tail call void @_efree(ptr noundef nonnull %61) #10
  store ptr null, ptr %60, align 8
  br label %63

63:                                               ; preds = %3, %62, %57, %php_glob_stream_path_split.exit
  %.028 = phi i64 [ 257, %php_glob_stream_path_split.exit ], [ -1, %57 ], [ -1, %62 ], [ -1, %3 ]
  ret i64 %.028
}